target datalayout = "e-m:e-p270:32:32-p271:32:32-p272:64:64-i64:64-i128:128-f80:128-n8:16:32:64-S128"
target triple = "x86_64-pc-linux-gnu"

%struct.redisServer = type { i32, i64, ptr, ptr, ptr, i32, i32, i32, i32, i32, ptr, ptr, ptr, ptr, ptr, i32, i32, i32, i32, i64, i32, i32, i32, i32, ptr, i32, i32, [41 x i8], i32, i64, i32, i32, i32, ptr, ptr, i32, i32, i64, ptr, ptr, ptr, ptr, [2 x i32], i32, i32, i32, i32, i32, i32, [16 x ptr], i32, ptr, ptr, i32, [8 x %struct.connListener], i32, %struct.connListener, ptr, ptr, ptr, ptr, ptr, ptr, ptr, ptr, ptr, ptr, i32, ptr, i32, ptr, [3 x %struct.pause_event], [256 x i8], ptr, i64, i32, i32, [128 x i32], i32, i32, i64, i32, i32, i32, i32, i32, i64, i64, i64, i64, i64, i64, i64, i64, i64, i64, double, i64, i64, i64, i64, i64, i64, i64, i64, i64, i64, i64, i64, i64, i64, i64, i64, i64, i64, i64, i64, i64, double, i64, i64, i64, i64, i64, ptr, i64, i64, i64, %struct.malloc_stats, i64, i64, i64, i64, i64, i64, i64, i64, i64, i64, i64, i64, double, [4 x i64], i64, i64, i64, i64, [128 x i64], [128 x i64], i64, i64, [7 x %struct.anon], i64, i64, i64, i64, i64, i64, [4 x %struct.durationStats], i32, i32, i32, i32, i32, i32, i32, i32, i32, i32, i32, i32, i64, i32, i32, i32, i32, i64, i64, i32, i32, i32, i32, i32, ptr, [3 x %struct.clientBufferLimitsConfig], i32, i32, i32, ptr, i32, i32, i32, i32, i32, i32, ptr, ptr, i32, i32, i64, i64, i64, i64, i64, i32, i32, ptr, i32, i32, i64, i64, i64, i64, i64, i32, i32, i64, i32, i32, i32, i32, i32, i32, i32, i32, ptr, i32, i64, i64, i64, i64, i32, ptr, i32, ptr, i32, i32, i32, i64, i64, i64, i64, i32, i32, i32, i32, i32, i32, ptr, i32, i32, ptr, i32, i32, i32, [2 x i32], i32, %struct.redisOpArray, i32, ptr, i32, ptr, i32, i32, i32, i32, i32, i32, i32, [41 x i8], [41 x i8], i64, i64, i64, i64, i32, i32, ptr, i64, i64, %struct.replDataBuf, i64, i64, i32, i32, i32, i32, i32, i32, i32, i32, i32, i64, ptr, i64, ptr, ptr, ptr, i32, i32, ptr, ptr, i32, i32, i32, i64, i64, i64, i64, ptr, ptr, i32, ptr, i64, i32, i32, i32, i64, i32, i32, i32, i32, ptr, i32, i32, [41 x i8], i64, i32, ptr, i32, i32, i64, i64, i32, i32, i32, i32, i32, i64, [3 x i32], i32, i32, i32, [10 x i32], ptr, ptr, i32, i64, ptr, ptr, i32, i32, i32, i32, i64, i64, i64, i64, i64, i64, i64, i64, i64, i64, i32, i32, i64, i64, i32, i64, i64, i64, i64, i64, ptr, ptr, i32, ptr, i32, i32, i32, i32, i64, i64, ptr, ptr, i32, i32, i32, i32, i32, ptr, ptr, ptr, i32, i32, i32, i32, i32, i32, i32, i64, i32, i32, i64, i32, i32, i32, i32, i32, i32, i32, i64, ptr, ptr, i64, ptr, i32, %struct.aclInfo, i32, i64, i32, i32, i32, %struct.redisTLSContextConfig, ptr, ptr, ptr, ptr, ptr, i64, i32, ptr, i32, i32, i32, i64, i32, ptr }
%struct.connListener = type { [16 x i32], i32, ptr, i32, i32, ptr, ptr }
%struct.pause_event = type { i32, i64 }
%struct.malloc_stats = type { i64, i64, i64, i64, i64, i64, i64, i64, i64, i64, i64 }
%struct.anon = type { i64, i64, [16 x i64], i32 }
%struct.durationStats = type { i64, i64, i64 }
%struct.clientBufferLimitsConfig = type { i64, i64, i64 }
%struct.redisOpArray = type { ptr, i32, i32 }
%struct.replDataBuf = type { ptr, i64, i64, i64, i64 }
%struct.aclInfo = type { i64, i64, i64, i64 }
%struct.redisTLSContextConfig = type { ptr, ptr, ptr, ptr, ptr, ptr, ptr, ptr, ptr, ptr, ptr, ptr, i32, i32, i32, i32 }
%struct.clusterState = type { ptr, i64, i32, i32, ptr, ptr, ptr, [16384 x ptr], [16384 x ptr], [16384 x ptr], [40 x i8], i64, i32, i32, i32, i64, i32, i64, ptr, i64, i32, i64, i32, [11 x i64], [11 x i64], i64, i64, [2048 x i8] }
%struct.clusterMsgSendBlock = type { i64, i32, %struct.clusterMsg }
%struct.clusterMsg = type { [4 x i8], i32, i16, i16, i16, i16, i64, i64, i64, [40 x i8], [2048 x i8], [40 x i8], [46 x i8], i16, [30 x i8], i16, i16, i16, i8, [3 x i8], %union.clusterMsgData }
%union.clusterMsgData = type { %struct.anon.3 }
%struct.anon.3 = type { %struct.clusterMsgDataUpdate }
%struct.clusterMsgDataUpdate = type { i64, [40 x i8], [2048 x i8] }

@server = external global %struct.redisServer, align 8
@.str.18 = private unnamed_addr constant [17 x i8] c"cluster_legacy.c\00", align 1
@.str.300 = private unnamed_addr constant [24 x i8] c"msgblock->refcount >= 0\00", align 1

; Function Attrs: nounwind uwtable
define internal void @clusterMsgSendBlockDecrRefCount(ptr noundef %0) #0 {
  %2 = alloca ptr, align 8
  %3 = alloca ptr, align 8
  store ptr %0, ptr %2, align 8, !tbaa !47
  call void @llvm.lifetime.start.p0(i64 8, ptr %3) #16
  %4 = load ptr, ptr %2, align 8, !tbaa !47
  store ptr %4, ptr %3, align 8, !tbaa !47
  %5 = load ptr, ptr %3, align 8, !tbaa !47
  %6 = getelementptr inbounds nuw %struct.clusterMsgSendBlock, ptr %5, i32 0, i32 1
  %7 = load i32, ptr %6, align 8, !tbaa !185
  %8 = add nsw i32 %7, -1
  store i32 %8, ptr %6, align 8, !tbaa !185
  %9 = load ptr, ptr %3, align 8, !tbaa !47
  %10 = getelementptr inbounds nuw %struct.clusterMsgSendBlock, ptr %9, i32 0, i32 1
  %11 = load i32, ptr %10, align 8, !tbaa !185
  %12 = icmp sge i32 %11, 0
  %13 = xor i1 %12, true
  %14 = xor i1 %13, true
  %15 = zext i1 %14 to i32
  %16 = sext i32 %15 to i64
  %17 = call i64 @llvm.expect.i64(i64 %16, i64 1)
  %18 = icmp ne i64 %17, 0
  br i1 %18, label %19, label %20

19:                                               ; preds = %1
  br label %22

20:                                               ; preds = %1
  call void @_serverAssert(ptr noundef @.str.300, ptr noundef @.str.18, i32 noundef 1150)
  call void @abort() #18
  unreachable

21:                                               ; No predecessors!
  br label %22

22:                                               ; preds = %21, %19
  %23 = load ptr, ptr %3, align 8, !tbaa !47
  %24 = getelementptr inbounds nuw %struct.clusterMsgSendBlock, ptr %23, i32 0, i32 1
  %25 = load i32, ptr %24, align 8, !tbaa !185
  %26 = icmp eq i32 %25, 0
  br i1 %26, label %27, label %34

27:                                               ; preds = %22
  %28 = load ptr, ptr %3, align 8, !tbaa !47
  %29 = getelementptr inbounds nuw %struct.clusterMsgSendBlock, ptr %28, i32 0, i32 0
  %30 = load i64, ptr %29, align 8, !tbaa !188
  %31 = load i64, ptr getelementptr inbounds nuw (%struct.redisServer, ptr @server, i32 0, i32 143), align 8, !tbaa !181
  %32 = sub i64 %31, %30
  store i64 %32, ptr getelementptr inbounds nuw (%struct.redisServer, ptr @server, i32 0, i32 143), align 8, !tbaa !181
  %33 = load ptr, ptr %3, align 8, !tbaa !47
  call void @zfree(ptr noundef %33)
  br label %34

34:                                               ; preds = %27, %22
  call void @llvm.lifetime.end.p0(i64 8, ptr %3) #16
  ret void
}

; Function Attrs: nounwind uwtable
define dso_local void @clusterRequestFailoverAuth() #0 {
  %1 = alloca i32, align 4
  %2 = alloca ptr, align 8
  %3 = alloca ptr, align 8
  call void @llvm.lifetime.start.p0(i64 4, ptr %1) #16
  store i32 2256, ptr %1, align 4, !tbaa !46
  call void @llvm.lifetime.start.p0(i64 8, ptr %2) #16
  %4 = load i32, ptr %1, align 4, !tbaa !46
  %5 = call ptr @createClusterMsgSendBlock(i32 noundef 5, i32 noundef %4)
  store ptr %5, ptr %2, align 8, !tbaa !47
  call void @llvm.lifetime.start.p0(i64 8, ptr %3) #16
  %6 = load ptr, ptr %2, align 8, !tbaa !47
  %7 = getelementptr inbounds nuw %struct.clusterMsgSendBlock, ptr %6, i32 0, i32 2
  store ptr %7, ptr %3, align 8, !tbaa !47
  %8 = load ptr, ptr getelementptr inbounds nuw (%struct.redisServer, ptr @server, i32 0, i32 385), align 8, !tbaa !57
  %9 = getelementptr inbounds nuw %struct.clusterState, ptr %8, i32 0, i32 17
  %10 = load i64, ptr %9, align 8, !tbaa !147
  %11 = icmp ne i64 %10, 0
  br i1 %11, label %12, label %20

12:                                               ; preds = %0
  %13 = load ptr, ptr %3, align 8, !tbaa !47
  %14 = getelementptr inbounds nuw %struct.clusterMsg, ptr %13, i32 0, i32 19
  %15 = getelementptr inbounds [3 x i8], ptr %14, i64 0, i64 0
  %16 = load i8, ptr %15, align 1, !tbaa !54
  %17 = zext i8 %16 to i32
  %18 = or i32 %17, 2
  %19 = trunc i32 %18 to i8
  store i8 %19, ptr %15, align 1, !tbaa !54
  br label %20

20:                                               ; preds = %12, %0
  %21 = load ptr, ptr %2, align 8, !tbaa !47
  call void @clusterBroadcastMessage(ptr noundef %21)
  %22 = load ptr, ptr %2, align 8, !tbaa !47
  call void @clusterMsgSendBlockDecrRefCount(ptr noundef %22)
  call void @llvm.lifetime.end.p0(i64 8, ptr %3) #16
  call void @llvm.lifetime.end.p0(i64 8, ptr %2) #16
  call void @llvm.lifetime.end.p0(i64 4, ptr %1) #16
  ret void
}