; Function Attrs: nounwind uwtable
define dso_local void @clusterRequestFailoverAuth() local_unnamed_addr #3 {
  %1 = tail call fastcc ptr @createClusterMsgSendBlock(i32 noundef 5, i32 noundef 2256)
  %2 = load ptr, ptr getelementptr inbounds nuw (i8, ptr @server, i64 7920), align 8, !tbaa !56
  %3 = getelementptr inbounds nuw i8, ptr %2, i64 393344
  %4 = load i64, ptr %3, align 8, !tbaa !240
  %.not = icmp eq i64 %4, 0
  br i1 %.not, label %9, label %5

5:                                                ; preds = %0
  %6 = getelementptr inbounds nuw i8, ptr %1, i64 2269
  %7 = load i8, ptr %6, align 1, !tbaa !50
  %8 = or i8 %7, 2
  store i8 %8, ptr %6, align 1, !tbaa !50
  br label %9

9:                                                ; preds = %5, %0
  tail call void @clusterBroadcastMessage(ptr noundef %1)
  %10 = getelementptr inbounds nuw i8, ptr %1, i64 8
  %11 = load i32, ptr %10, align 8, !tbaa !165
  %12 = add nsw i32 %11, -1
  store i32 %12, ptr %10, align 8, !tbaa !165
  %13 = icmp sgt i32 %11, 0
  br i1 %13, label %15, label %14, !prof !62

14:                                               ; preds = %9
  tail call void @_serverAssert(ptr noundef nonnull @.str.300, ptr noundef nonnull @.str.18, i32 noundef 1150) #33
  tail call void @abort() #35
  unreachable

15:                                               ; preds = %9
  %16 = icmp eq i32 %12, 0
  br i1 %16, label %17, label %clusterMsgSendBlockDecrRefCount.exit

17:                                               ; preds = %15
  %18 = load i64, ptr %1, align 8, !tbaa !168
  %19 = load i64, ptr getelementptr inbounds nuw (i8, ptr @server, i64 2984), align 8, !tbaa !160
  %20 = sub i64 %19, %18
  store i64 %20, ptr getelementptr inbounds nuw (i8, ptr @server, i64 2984), align 8, !tbaa !160
  tail call void @zfree(ptr noundef nonnull %1) #33
  br label %clusterMsgSendBlockDecrRefCount.exit

clusterMsgSendBlockDecrRefCount.exit:             ; preds = %15, %17
  ret void
}